target datalayout = "e-m:e-p270:32:32-p271:32:32-p272:64:64-i64:64-i128:128-f80:128-n8:16:32:64-S128"
target triple = "x86_64-pc-linux-gnu"

%"class.casadi::SharedObject" = type { ptr }
%"class.casadi::Linsol" = type { %"class.casadi::SharedObject" }

@_ZN6casadi6LinsolC1Ev = unnamed_addr alias void (ptr), ptr @_ZN6casadi6LinsolC2Ev

; Function Attrs: mustprogress nounwind uwtable
define linkonce_odr hidden void @_ZN6casadi6LinsolD2Ev(ptr noundef nonnull align 8 dereferenceable(8) %0) unnamed_addr #5 comdat align 2 {
  %2 = alloca ptr, align 8
  store ptr %0, ptr %2, align 8
  %3 = load ptr, ptr %2, align 8
  call void @_ZN6casadi12SharedObjectD2Ev(ptr noundef nonnull align 8 dereferenceable(8) %3) #3
  ret void
}

; Function Attrs: mustprogress uwtable
define noundef ptr @_ZN6casadi6LinsolptEv(ptr noundef nonnull align 8 dereferenceable(8) %0) #4 align 2 {
  %2 = alloca ptr, align 8
  store ptr %0, ptr %2, align 8
  %3 = load ptr, ptr %2, align 8
  %4 = call noundef ptr @_ZNK6casadi12SharedObjectptEv(ptr noundef nonnull align 8 dereferenceable(8) %3)
  ret ptr %4
}

; Function Attrs: mustprogress uwtable
define void @_ZN6casadi6Linsol11deserializeERNS_19DeserializingStreamE(ptr dead_on_unwind noalias writable sret(%"class.casadi::Linsol") align 8 %0, ptr noundef nonnull align 8 dereferenceable(41) %1) #4 align 2 personality ptr @__gxx_personality_v0 {
  %3 = alloca ptr, align 8
  %4 = alloca ptr, align 8
  %5 = alloca i1, align 1
  %6 = alloca ptr, align 8
  %7 = alloca i32, align 4
  store ptr %0, ptr %3, align 8
  store ptr %1, ptr %4, align 8
  store i1 false, ptr %5, align 1
  call void @_ZN6casadi6LinsolC1Ev(ptr noundef nonnull align 8 dereferenceable(8) %0)
  %8 = load ptr, ptr %4, align 8
  %9 = invoke noundef ptr @_ZN6casadi14LinsolInternal11deserializeERNS_19DeserializingStreamE(ptr noundef nonnull align 8 dereferenceable(41) %8)
          to label %10 unwind label %19

10:                                               ; preds = %2
  invoke void @_ZN6casadi12SharedObject3ownEPNS_20SharedObjectInternalE(ptr noundef nonnull align 8 dereferenceable(8) %0, ptr noundef %9)
          to label %11 unwind label %19

11:                                               ; preds = %10
  %12 = invoke noundef ptr @_ZN6casadi6LinsolptEv(ptr noundef nonnull align 8 dereferenceable(8) %0)
          to label %13 unwind label %19

13:                                               ; preds = %11
  %14 = load ptr, ptr %12, align 8
  %15 = getelementptr inbounds ptr, ptr %14, i64 8
  %16 = load ptr, ptr %15, align 8
  invoke void %16(ptr noundef nonnull align 8 dereferenceable(168) %12)
          to label %17 unwind label %19

17:                                               ; preds = %13
  store i1 true, ptr %5, align 1
  %18 = load i1, ptr %5, align 1
  br i1 %18, label %24, label %23

19:                                               ; preds = %13, %11, %10, %2
  %20 = landingpad { ptr, i32 }
          cleanup
  %21 = extractvalue { ptr, i32 } %20, 0
  store ptr %21, ptr %6, align 8
  %22 = extractvalue { ptr, i32 } %20, 1
  store i32 %22, ptr %7, align 4
  call void @_ZN6casadi6LinsolD2Ev(ptr noundef nonnull align 8 dereferenceable(8) %0) #3
  br label %25

23:                                               ; preds = %17
  call void @_ZN6casadi6LinsolD2Ev(ptr noundef nonnull align 8 dereferenceable(8) %0) #3
  br label %24

24:                                               ; preds = %23, %17
  ret void

25:                                               ; preds = %19
  %26 = load ptr, ptr %6, align 8
  %27 = load i32, ptr %7, align 4
  %28 = insertvalue { ptr, i32 } poison, ptr %26, 0
  %29 = insertvalue { ptr, i32 } %28, i32 %27, 1
  resume { ptr, i32 } %29
}