; Function Attrs: mustprogress uwtable
define void @_ZN6casadi6Linsol11deserializeERNS_19DeserializingStreamE(ptr dead_on_unwind noalias writable sret(%"class.casadi::Linsol") align 8 %0, ptr noundef nonnull align 8 dereferenceable(41) %1) local_unnamed_addr #3 align 2 personality ptr @__gxx_personality_v0 {
  tail call void @_ZN6casadi6LinsolC1Ev(ptr noundef nonnull align 8 dereferenceable(8) %0)
  %3 = invoke noundef ptr @_ZN6casadi14LinsolInternal11deserializeERNS_19DeserializingStreamE(ptr noundef nonnull align 8 dereferenceable(41) %1)
          to label %4 unwind label %10

4:                                                ; preds = %2
  invoke void @_ZN6casadi12SharedObject3ownEPNS_20SharedObjectInternalE(ptr noundef nonnull align 8 dereferenceable(8) %0, ptr noundef %3)
          to label %5 unwind label %10

5:                                                ; preds = %4
  %6 = invoke noundef ptr @_ZNK6casadi12SharedObjectptEv(ptr noundef nonnull align 8 dereferenceable(8) %0)
          to label %_ZN6casadi6LinsolptEv.exit unwind label %10

_ZN6casadi6LinsolptEv.exit:                       ; preds = %5
  %7 = load ptr, ptr %6, align 8
  %8 = getelementptr inbounds i8, ptr %7, i64 64
  %9 = load ptr, ptr %8, align 8
  invoke void %9(ptr noundef nonnull align 8 dereferenceable(168) %6)
          to label %12 unwind label %10

10:                                               ; preds = %5, %_ZN6casadi6LinsolptEv.exit, %4, %2
  %11 = landingpad { ptr, i32 }
          cleanup
  tail call void @_ZN6casadi12SharedObjectD2Ev(ptr noundef nonnull align 8 dereferenceable(8) %0) #20
  resume { ptr, i32 } %11

12:                                               ; preds = %_ZN6casadi6LinsolptEv.exit
  ret void
}